target datalayout = "e-m:e-p270:32:32-p271:32:32-p272:64:64-i64:64-i128:128-f80:128-n8:16:32:64-S128"
target triple = "x86_64-pc-linux-gnu"

%struct.If_Cut_t_ = type <{ float, float, float, float, i32, i32, i32, i64, [0 x i32] }>
%struct.If_Man_t_ = type { ptr, ptr, ptr, ptr, ptr, ptr, ptr, ptr, [5 x i32], i32, float, float, float, float, i32, float, i32, i32, [4 x ptr], ptr, i32, i32, i32, ptr, [3 x [32 x i32]], i32, i32, i32, ptr, ptr, ptr, ptr, ptr, ptr, ptr, i32, i32, i32, [16 x i32], i32, i32, i32, i32, ptr, ptr, ptr, ptr, ptr, i32, i32, [32 x i32], [32 x i32], i32, i32, i32, i32, ptr, [16 x ptr], [16 x ptr], [16 x ptr], [16 x ptr], [16 x ptr], [16 x ptr], [16 x ptr], ptr, ptr, ptr, ptr, [32 x i8], i32, i32, i32, [6 x i64], [2 x i32], [2 x i32], ptr, [15 x i32], ptr, ptr, ptr, [16 x i32], ptr, ptr, ptr, ptr, [2 x i32], [2 x i32], [2 x ptr], ptr }

; Function Attrs: nounwind uwtable
define i32 @If_CutMerge(ptr noundef %0, ptr noundef %1, ptr noundef %2, ptr noundef %3) #0 {
  %5 = alloca i32, align 4
  %6 = alloca ptr, align 8
  %7 = alloca ptr, align 8
  %8 = alloca ptr, align 8
  %9 = alloca ptr, align 8
  %10 = alloca i32, align 4
  %11 = alloca i32, align 4
  %12 = alloca i32, align 4
  %13 = alloca ptr, align 8
  %14 = alloca ptr, align 8
  %15 = alloca ptr, align 8
  %16 = alloca i32, align 4
  %17 = alloca i32, align 4
  %18 = alloca i32, align 4
  %19 = alloca i32, align 4
  store ptr %0, ptr %6, align 8, !tbaa !35
  store ptr %1, ptr %7, align 8, !tbaa !15
  store ptr %2, ptr %8, align 8, !tbaa !15
  store ptr %3, ptr %9, align 8, !tbaa !15
  call void @llvm.lifetime.start.p0(i64 4, ptr %10) #9
  %20 = load ptr, ptr %7, align 8, !tbaa !15
  %21 = getelementptr inbounds nuw %struct.If_Cut_t_, ptr %20, i32 0, i32 7
  %22 = load i64, ptr %21, align 4
  %23 = lshr i64 %22, 16
  %24 = and i64 %23, 255
  %25 = trunc i64 %24 to i32
  store i32 %25, ptr %10, align 4, !tbaa !8
  call void @llvm.lifetime.start.p0(i64 4, ptr %11) #9
  %26 = load ptr, ptr %7, align 8, !tbaa !15
  %27 = getelementptr inbounds nuw %struct.If_Cut_t_, ptr %26, i32 0, i32 7
  %28 = load i64, ptr %27, align 4
  %29 = lshr i64 %28, 24
  %30 = and i64 %29, 255
  %31 = trunc i64 %30 to i32
  store i32 %31, ptr %11, align 4, !tbaa !8
  call void @llvm.lifetime.start.p0(i64 4, ptr %12) #9
  %32 = load ptr, ptr %8, align 8, !tbaa !15
  %33 = getelementptr inbounds nuw %struct.If_Cut_t_, ptr %32, i32 0, i32 7
  %34 = load i64, ptr %33, align 4
  %35 = lshr i64 %34, 24
  %36 = and i64 %35, 255
  %37 = trunc i64 %36 to i32
  store i32 %37, ptr %12, align 4, !tbaa !8
  call void @llvm.lifetime.start.p0(i64 8, ptr %13) #9
  %38 = load ptr, ptr %7, align 8, !tbaa !15
  %39 = getelementptr inbounds nuw %struct.If_Cut_t_, ptr %38, i32 0, i32 8
  %40 = getelementptr inbounds [0 x i32], ptr %39, i64 0, i64 0
  store ptr %40, ptr %13, align 8, !tbaa !23
  call void @llvm.lifetime.start.p0(i64 8, ptr %14) #9
  %41 = load ptr, ptr %8, align 8, !tbaa !15
  %42 = getelementptr inbounds nuw %struct.If_Cut_t_, ptr %41, i32 0, i32 8
  %43 = getelementptr inbounds [0 x i32], ptr %42, i64 0, i64 0
  store ptr %43, ptr %14, align 8, !tbaa !23
  call void @llvm.lifetime.start.p0(i64 8, ptr %15) #9
  %44 = load ptr, ptr %9, align 8, !tbaa !15
  %45 = getelementptr inbounds nuw %struct.If_Cut_t_, ptr %44, i32 0, i32 8
  %46 = getelementptr inbounds [0 x i32], ptr %45, i64 0, i64 0
  store ptr %46, ptr %15, align 8, !tbaa !23
  call void @llvm.lifetime.start.p0(i64 4, ptr %16) #9
  call void @llvm.lifetime.start.p0(i64 4, ptr %17) #9
  call void @llvm.lifetime.start.p0(i64 4, ptr %18) #9
  %47 = load i32, ptr %11, align 4, !tbaa !8
  store i32 %47, ptr %18, align 4, !tbaa !8
  store i32 0, ptr %16, align 4, !tbaa !8
  br label %48

48:                                               ; preds = %109, %4
  %49 = load i32, ptr %16, align 4, !tbaa !8
  %50 = load i32, ptr %12, align 4, !tbaa !8
  %51 = icmp slt i32 %49, %50
  br i1 %51, label %52, label %112

52:                                               ; preds = %48
  store i32 0, ptr %17, align 4, !tbaa !8
  br label %53

53:                                               ; preds = %71, %52
  %54 = load i32, ptr %17, align 4, !tbaa !8
  %55 = load i32, ptr %11, align 4, !tbaa !8
  %56 = icmp slt i32 %54, %55
  br i1 %56, label %57, label %74

57:                                               ; preds = %53
  %58 = load ptr, ptr %14, align 8, !tbaa !23
  %59 = load i32, ptr %16, align 4, !tbaa !8
  %60 = sext i32 %59 to i64
  %61 = getelementptr inbounds i32, ptr %58, i64 %60
  %62 = load i32, ptr %61, align 4, !tbaa !8
  %63 = load ptr, ptr %13, align 8, !tbaa !23
  %64 = load i32, ptr %17, align 4, !tbaa !8
  %65 = sext i32 %64 to i64
  %66 = getelementptr inbounds i32, ptr %63, i64 %65
  %67 = load i32, ptr %66, align 4, !tbaa !8
  %68 = icmp eq i32 %62, %67
  br i1 %68, label %69, label %70

69:                                               ; preds = %57
  br label %74

70:                                               ; preds = %57
  br label %71

71:                                               ; preds = %70
  %72 = load i32, ptr %17, align 4, !tbaa !8
  %73 = add nsw i32 %72, 1
  store i32 %73, ptr %17, align 4, !tbaa !8
  br label %53, !llvm.loop !58

74:                                               ; preds = %69, %53
  %75 = load i32, ptr %17, align 4, !tbaa !8
  %76 = load i32, ptr %11, align 4, !tbaa !8
  %77 = icmp slt i32 %75, %76
  br i1 %77, label %78, label %86

78:                                               ; preds = %74
  %79 = load i32, ptr %17, align 4, !tbaa !8
  %80 = load ptr, ptr %6, align 8, !tbaa !35
  %81 = getelementptr inbounds nuw %struct.If_Man_t_, ptr %80, i32 0, i32 24
  %82 = getelementptr inbounds [3 x [32 x i32]], ptr %81, i64 0, i64 1
  %83 = load i32, ptr %16, align 4, !tbaa !8
  %84 = sext i32 %83 to i64
  %85 = getelementptr inbounds [32 x i32], ptr %82, i64 0, i64 %84
  store i32 %79, ptr %85, align 4, !tbaa !8
  br label %109

86:                                               ; preds = %74
  %87 = load i32, ptr %18, align 4, !tbaa !8
  %88 = load i32, ptr %10, align 4, !tbaa !8
  %89 = icmp eq i32 %87, %88
  br i1 %89, label %90, label %91

90:                                               ; preds = %86
  store i32 0, ptr %5, align 4
  store i32 1, ptr %19, align 4
  br label %149

91:                                               ; preds = %86
  %92 = load i32, ptr %18, align 4, !tbaa !8
  %93 = load ptr, ptr %6, align 8, !tbaa !35
  %94 = getelementptr inbounds nuw %struct.If_Man_t_, ptr %93, i32 0, i32 24
  %95 = getelementptr inbounds [3 x [32 x i32]], ptr %94, i64 0, i64 1
  %96 = load i32, ptr %16, align 4, !tbaa !8
  %97 = sext i32 %96 to i64
  %98 = getelementptr inbounds [32 x i32], ptr %95, i64 0, i64 %97
  store i32 %92, ptr %98, align 4, !tbaa !8
  %99 = load ptr, ptr %14, align 8, !tbaa !23
  %100 = load i32, ptr %16, align 4, !tbaa !8
  %101 = sext i32 %100 to i64
  %102 = getelementptr inbounds i32, ptr %99, i64 %101
  %103 = load i32, ptr %102, align 4, !tbaa !8
  %104 = load ptr, ptr %15, align 8, !tbaa !23
  %105 = load i32, ptr %18, align 4, !tbaa !8
  %106 = add nsw i32 %105, 1
  store i32 %106, ptr %18, align 4, !tbaa !8
  %107 = sext i32 %105 to i64
  %108 = getelementptr inbounds i32, ptr %104, i64 %107
  store i32 %103, ptr %108, align 4, !tbaa !8
  br label %109

109:                                              ; preds = %91, %78
  %110 = load i32, ptr %16, align 4, !tbaa !8
  %111 = add nsw i32 %110, 1
  store i32 %111, ptr %16, align 4, !tbaa !8
  br label %48, !llvm.loop !59

112:                                              ; preds = %48
  store i32 0, ptr %16, align 4, !tbaa !8
  br label %113

113:                                              ; preds = %127, %112
  %114 = load i32, ptr %16, align 4, !tbaa !8
  %115 = load i32, ptr %11, align 4, !tbaa !8
  %116 = icmp slt i32 %114, %115
  br i1 %116, label %117, label %130

117:                                              ; preds = %113
  %118 = load ptr, ptr %13, align 8, !tbaa !23
  %119 = load i32, ptr %16, align 4, !tbaa !8
  %120 = sext i32 %119 to i64
  %121 = getelementptr inbounds i32, ptr %118, i64 %120
  %122 = load i32, ptr %121, align 4, !tbaa !8
  %123 = load ptr, ptr %15, align 8, !tbaa !23
  %124 = load i32, ptr %16, align 4, !tbaa !8
  %125 = sext i32 %124 to i64
  %126 = getelementptr inbounds i32, ptr %123, i64 %125
  store i32 %122, ptr %126, align 4, !tbaa !8
  br label %127

127:                                              ; preds = %117
  %128 = load i32, ptr %16, align 4, !tbaa !8
  %129 = add nsw i32 %128, 1
  store i32 %129, ptr %16, align 4, !tbaa !8
  br label %113, !llvm.loop !60

130:                                              ; preds = %113
  %131 = load i32, ptr %18, align 4, !tbaa !8
  %132 = load ptr, ptr %9, align 8, !tbaa !15
  %133 = getelementptr inbounds nuw %struct.If_Cut_t_, ptr %132, i32 0, i32 7
  %134 = zext i32 %131 to i64
  %135 = load i64, ptr %133, align 4
  %136 = and i64 %134, 255
  %137 = shl i64 %136, 24
  %138 = and i64 %135, -4278190081
  %139 = or i64 %138, %137
  store i64 %139, ptr %133, align 4
  %140 = load ptr, ptr %7, align 8, !tbaa !15
  %141 = getelementptr inbounds nuw %struct.If_Cut_t_, ptr %140, i32 0, i32 6
  %142 = load i32, ptr %141, align 4, !tbaa !28
  %143 = load ptr, ptr %8, align 8, !tbaa !15
  %144 = getelementptr inbounds nuw %struct.If_Cut_t_, ptr %143, i32 0, i32 6
  %145 = load i32, ptr %144, align 4, !tbaa !28
  %146 = or i32 %142, %145
  %147 = load ptr, ptr %9, align 8, !tbaa !15
  %148 = getelementptr inbounds nuw %struct.If_Cut_t_, ptr %147, i32 0, i32 6
  store i32 %146, ptr %148, align 4, !tbaa !28
  store i32 1, ptr %5, align 4
  store i32 1, ptr %19, align 4
  br label %149

149:                                              ; preds = %130, %90
  call void @llvm.lifetime.end.p0(i64 4, ptr %18) #9
  call void @llvm.lifetime.end.p0(i64 4, ptr %17) #9
  call void @llvm.lifetime.end.p0(i64 4, ptr %16) #9
  call void @llvm.lifetime.end.p0(i64 8, ptr %15) #9
  call void @llvm.lifetime.end.p0(i64 8, ptr %14) #9
  call void @llvm.lifetime.end.p0(i64 8, ptr %13) #9
  call void @llvm.lifetime.end.p0(i64 4, ptr %12) #9
  call void @llvm.lifetime.end.p0(i64 4, ptr %11) #9
  call void @llvm.lifetime.end.p0(i64 4, ptr %10) #9
  %150 = load i32, ptr %5, align 4
  ret i32 %150
}