; Function Attrs: nofree norecurse nosync nounwind memory(argmem: readwrite) uwtable
define range(i32 0, 2) i32 @If_CutMerge(ptr noundef writeonly captures(none) %0, ptr noundef readonly captures(none) %1, ptr noundef readonly captures(none) %2, ptr noundef captures(none) %3) local_unnamed_addr #3 {
  %5 = getelementptr inbounds nuw i8, ptr %1, i64 28
  %6 = load i64, ptr %5, align 4
  %7 = trunc i64 %6 to i32
  %8 = lshr i32 %7, 16
  %9 = and i32 %8, 255
  %10 = lshr i32 %7, 24
  %11 = getelementptr inbounds nuw i8, ptr %2, i64 28
  %12 = load i64, ptr %11, align 4
  %13 = trunc i64 %12 to i32
  %14 = getelementptr inbounds nuw i8, ptr %1, i64 36
  %15 = getelementptr inbounds nuw i8, ptr %2, i64 36
  %16 = getelementptr inbounds nuw i8, ptr %3, i64 36
  %.not = icmp ult i32 %13, 16777216
  br i1 %.not, label %.preheader, label %.preheader47.lr.ph

.preheader47.lr.ph:                               ; preds = %4
  %17 = lshr i32 %13, 24
  %.not54 = icmp ult i32 %7, 16777216
  %18 = getelementptr inbounds nuw i8, ptr %0, i64 312
  %umax71 = tail call i32 @llvm.umax.i32(i32 %17, i32 1)
  %wide.trip.count72 = zext nneg i32 %umax71 to i64
  br i1 %.not54, label %.preheader47.preheader, label %.preheader47.us.preheader

.preheader47.us.preheader:                        ; preds = %.preheader47.lr.ph
  %umax = tail call i32 @llvm.umax.i32(i32 %10, i32 1)
  %wide.trip.count = zext nneg i32 %umax to i64
  br label %.preheader47.us

.preheader47.preheader:                           ; preds = %.preheader47.lr.ph
  %19 = zext nneg i32 %9 to i64
  br label %.preheader47

.preheader47.us:                                  ; preds = %.preheader47.us.preheader, %36
  %indvars.iv60 = phi i64 [ 0, %.preheader47.us.preheader ], [ %indvars.iv.next61, %36 ]
  %.052.us = phi i32 [ %10, %.preheader47.us.preheader ], [ %.1.us, %36 ]
  %20 = getelementptr inbounds nuw i32, ptr %15, i64 %indvars.iv60
  %21 = load i32, ptr %20, align 4, !tbaa !14
  br label %28

22:                                               ; preds = %..critedge_crit_edge.us
  %23 = getelementptr inbounds nuw [32 x i32], ptr %18, i64 0, i64 %indvars.iv60
  store i32 %.052.us, ptr %23, align 4, !tbaa !14
  %24 = load i32, ptr %20, align 4, !tbaa !14
  %25 = add nsw i32 %.052.us, 1
  %26 = sext i32 %.052.us to i64
  %27 = getelementptr inbounds i32, ptr %16, i64 %26
  store i32 %24, ptr %27, align 4, !tbaa !14
  br label %36

28:                                               ; preds = %.preheader47.us, %32
  %indvars.iv = phi i64 [ 0, %.preheader47.us ], [ %indvars.iv.next, %32 ]
  %29 = getelementptr inbounds nuw i32, ptr %14, i64 %indvars.iv
  %30 = load i32, ptr %29, align 4, !tbaa !14
  %31 = icmp eq i32 %21, %30
  br i1 %31, label %33, label %32

32:                                               ; preds = %28
  %indvars.iv.next = add nuw nsw i64 %indvars.iv, 1
  %exitcond.not = icmp eq i64 %indvars.iv.next, %wide.trip.count
  br i1 %exitcond.not, label %..critedge_crit_edge.us, label %28, !llvm.loop !51

33:                                               ; preds = %28
  %34 = trunc nuw nsw i64 %indvars.iv to i32
  %35 = getelementptr inbounds nuw [32 x i32], ptr %18, i64 0, i64 %indvars.iv60
  store i32 %34, ptr %35, align 4, !tbaa !14
  br label %36

36:                                               ; preds = %33, %22
  %.1.us = phi i32 [ %.052.us, %33 ], [ %25, %22 ]
  %indvars.iv.next61 = add nuw nsw i64 %indvars.iv60, 1
  %exitcond65.not = icmp eq i64 %indvars.iv.next61, %wide.trip.count72
  br i1 %exitcond65.not, label %.preheader, label %.preheader47.us, !llvm.loop !52

..critedge_crit_edge.us:                          ; preds = %32
  %37 = icmp eq i32 %.052.us, %9
  br i1 %37, label %.loopexit, label %22

.preheader47:                                     ; preds = %.preheader47.preheader, %40
  %indvars.iv68 = phi i64 [ 0, %.preheader47.preheader ], [ %indvars.iv.next69, %40 ]
  %indvars.iv66 = phi i64 [ 0, %.preheader47.preheader ], [ %indvars.iv.next67, %40 ]
  %38 = icmp eq i64 %indvars.iv66, %19
  br i1 %38, label %.loopexit, label %40

.preheader.loopexit:                              ; preds = %40
  %39 = trunc nuw nsw i64 %indvars.iv.next67 to i32
  br label %.preheader

.preheader:                                       ; preds = %36, %.preheader.loopexit, %4
  %.0.lcssa = phi i32 [ %10, %4 ], [ %39, %.preheader.loopexit ], [ %.1.us, %36 ]
  %.not55 = icmp ult i32 %7, 16777216
  br i1 %.not55, label %._crit_edge, label %.lr.ph.preheader

.lr.ph.preheader:                                 ; preds = %.preheader
  %umax77 = tail call i32 @llvm.umax.i32(i32 %10, i32 1)
  %wide.trip.count78 = zext nneg i32 %umax77 to i64
  br label %.lr.ph

40:                                               ; preds = %.preheader47
  %41 = getelementptr inbounds nuw [32 x i32], ptr %18, i64 0, i64 %indvars.iv68
  %42 = trunc nuw nsw i64 %indvars.iv66 to i32
  store i32 %42, ptr %41, align 4, !tbaa !14
  %43 = getelementptr inbounds nuw i32, ptr %15, i64 %indvars.iv68
  %44 = load i32, ptr %43, align 4, !tbaa !14
  %indvars.iv.next67 = add nuw nsw i64 %indvars.iv66, 1
  %45 = getelementptr inbounds nuw i32, ptr %16, i64 %indvars.iv66
  store i32 %44, ptr %45, align 4, !tbaa !14
  %indvars.iv.next69 = add nuw nsw i64 %indvars.iv68, 1
  %exitcond73.not = icmp eq i64 %indvars.iv.next69, %wide.trip.count72
  br i1 %exitcond73.not, label %.preheader.loopexit, label %.preheader47, !llvm.loop !52

.lr.ph:                                           ; preds = %.lr.ph.preheader, %.lr.ph
  %indvars.iv74 = phi i64 [ 0, %.lr.ph.preheader ], [ %indvars.iv.next75, %.lr.ph ]
  %46 = getelementptr inbounds nuw i32, ptr %14, i64 %indvars.iv74
  %47 = load i32, ptr %46, align 4, !tbaa !14
  %48 = getelementptr inbounds nuw i32, ptr %16, i64 %indvars.iv74
  store i32 %47, ptr %48, align 4, !tbaa !14
  %indvars.iv.next75 = add nuw nsw i64 %indvars.iv74, 1
  %exitcond79.not = icmp eq i64 %indvars.iv.next75, %wide.trip.count78
  br i1 %exitcond79.not, label %._crit_edge, label %.lr.ph, !llvm.loop !53

._crit_edge:                                      ; preds = %.lr.ph, %.preheader
  %49 = getelementptr inbounds nuw i8, ptr %3, i64 28
  %50 = load i64, ptr %49, align 4
  %51 = shl i32 %.0.lcssa, 24
  %52 = zext i32 %51 to i64
  %53 = and i64 %50, -4278190081
  %54 = or disjoint i64 %53, %52
  store i64 %54, ptr %49, align 4
  %55 = getelementptr inbounds nuw i8, ptr %1, i64 24
  %56 = load i32, ptr %55, align 4, !tbaa !25
  %57 = getelementptr inbounds nuw i8, ptr %2, i64 24
  %58 = load i32, ptr %57, align 4, !tbaa !25
  %59 = or i32 %58, %56
  %60 = getelementptr inbounds nuw i8, ptr %3, i64 24
  store i32 %59, ptr %60, align 4, !tbaa !25
  br label %.loopexit

.loopexit:                                        ; preds = %..critedge_crit_edge.us, %.preheader47, %._crit_edge
  %.046 = phi i32 [ 1, %._crit_edge ], [ 0, %.preheader47 ], [ 0, %..critedge_crit_edge.us ]
  ret i32 %.046
}